Certificate:
    Data:
        Version: 3 (0x2)
        Serial Number: 633812 (0x9abd4)
        Signature Algorithm: sha256WithRSAEncryption
        Issuer: CN=web-platform-tests
        Validity
            Not Before: Aug 29 20:32:30 2025 GMT
            Not After : Aug 29 20:32:30 2026 GMT
        Subject: CN=web-platform.test
        Subject Public Key Info:
            Public Key Algorithm: rsaEncryption
                Public-Key: (2048 bit)
                Modulus:
                    00:b9:7f:82:63:9c:6a:e5:96:db:6a:26:18:61:b2:
                    d2:8e:22:3e:42:0a:5b:43:6e:2b:53:67:19:ab:c8:
                    b8:41:f3:62:95:f5:cb:ca:b2:15:d8:45:53:c4:21:
                    de:cf:32:81:44:5c:77:10:6f:49:3e:fe:6f:8a:74:
                    db:51:60:1e:87:60:9e:f6:c0:87:32:7d:b1:8b:06:
                    ed:f2:c6:ec:79:98:e8:d1:2e:13:0d:38:06:3f:21:
                    44:5f:58:5c:c5:03:a0:e3:09:b8:9e:e2:6a:3f:d3:
                    df:49:92:43:93:fc:99:85:c9:16:16:8d:3b:a4:20:
                    dc:38:35:0f:5f:5e:30:e7:f8:ec:98:f6:01:00:d9:
                    9d:eb:56:3e:11:a9:a8:20:29:95:2f:38:83:46:4e:
                    43:21:bc:76:fe:4e:07:33:0b:0d:2b:a5:f8:cb:d6:
                    b7:10:3e:f7:ba:87:fd:95:7c:ff:95:86:10:11:39:
                    c5:66:10:d4:2d:6b:50:67:2b:9d:75:45:79:d3:01:
                    5c:a3:46:5a:3c:58:bf:50:30:ec:04:f2:29:81:db:
                    cf:9f:59:af:2c:53:28:30:13:05:75:db:4c:ab:e0:
                    ab:6a:f8:02:fa:6d:20:3b:54:20:22:7d:3e:b0:3a:
                    cc:1a:64:19:68:df:29:99:79:7d:37:9a:f3:3e:ef:
                    fc:ef
                Exponent: 65537 (0x10001)
        X509v3 extensions:
            X509v3 Basic Constraints: 
                CA:FALSE
            X509v3 Subject Key Identifier: 
                71:99:3D:63:BA:72:60:12:8C:5B:55:3A:91:2E:FB:3B:63:B8:CA:1E
            X509v3 Authority Key Identifier: 
                58:81:93:CD:04:22:93:E7:BC:25:F6:3C:FD:98:5B:72:74:9A:C9:C3
            X509v3 Key Usage: 
                Digital Signature, Non Repudiation, Key Encipherment
            X509v3 Extended Key Usage: 
                TLS Web Server Authentication
            X509v3 Subject Alternative Name: 
                DNS:web-platform.test, DNS:not-web-platform.test, DNS:www.web-platform.test, DNS:www1.web-platform.test, DNS:www2.web-platform.test, DNS:www.not-web-platform.test, DNS:www.www.web-platform.test, DNS:www2.www.web-platform.test, DNS:www1.www.web-platform.test, DNS:www2.not-web-platform.test, DNS:www.www2.web-platform.test, DNS:www.www1.web-platform.test, DNS:www1.not-web-platform.test, DNS:www2.www1.web-platform.test, DNS:www1.www1.web-platform.test, DNS:www2.www2.web-platform.test, DNS:www1.www2.web-platform.test, DNS:www.www.not-web-platform.test, DNS:www.www1.not-web-platform.test, DNS:www.www2.not-web-platform.test, DNS:www1.www.not-web-platform.test, DNS:xn--lve-6lad.web-platform.test, DNS:www2.www.not-web-platform.test, DNS:www2.www1.not-web-platform.test, DNS:www1.www2.not-web-platform.test, DNS:www1.www1.not-web-platform.test, DNS:www2.www2.not-web-platform.test, DNS:xn--lve-6lad.not-web-platform.test, DNS:www.xn--lve-6lad.web-platform.test, DNS:xn--lve-6lad.www.web-platform.test, DNS:www1.xn--lve-6lad.web-platform.test, DNS:www2.xn--lve-6lad.web-platform.test, DNS:xn--lve-6lad.www2.web-platform.test, DNS:xn--lve-6lad.www1.web-platform.test, DNS:xn--lve-6lad.www.not-web-platform.test, DNS:www.xn--lve-6lad.not-web-platform.test, DNS:xn--lve-6lad.www1.not-web-platform.test, DNS:www2.xn--lve-6lad.not-web-platform.test, DNS:www1.xn--lve-6lad.not-web-platform.test, DNS:xn--lve-6lad.www2.not-web-platform.test, DNS:xn--n8j6ds53lwwkrqhv28a.web-platform.test, DNS:xn--lve-6lad.xn--lve-6lad.web-platform.test, DNS:xn--n8j6ds53lwwkrqhv28a.www.web-platform.test, DNS:www.xn--n8j6ds53lwwkrqhv28a.web-platform.test, DNS:xn--n8j6ds53lwwkrqhv28a.not-web-platform.test, DNS:xn--n8j6ds53lwwkrqhv28a.www2.web-platform.test, DNS:www2.xn--n8j6ds53lwwkrqhv28a.web-platform.test, DNS:www1.xn--n8j6ds53lwwkrqhv28a.web-platform.test, DNS:xn--n8j6ds53lwwkrqhv28a.www1.web-platform.test, DNS:xn--lve-6lad.xn--lve-6lad.not-web-platform.test, DNS:www.xn--n8j6ds53lwwkrqhv28a.not-web-platform.test, DNS:xn--n8j6ds53lwwkrqhv28a.www.not-web-platform.test, DNS:xn--n8j6ds53lwwkrqhv28a.www2.not-web-platform.test, DNS:xn--n8j6ds53lwwkrqhv28a.www1.not-web-platform.test, DNS:www1.xn--n8j6ds53lwwkrqhv28a.not-web-platform.test, DNS:www2.xn--n8j6ds53lwwkrqhv28a.not-web-platform.test, DNS:xn--n8j6ds53lwwkrqhv28a.xn--lve-6lad.web-platform.test, DNS:xn--lve-6lad.xn--n8j6ds53lwwkrqhv28a.web-platform.test, DNS:xn--lve-6lad.xn--n8j6ds53lwwkrqhv28a.not-web-platform.test, DNS:xn--n8j6ds53lwwkrqhv28a.xn--lve-6lad.not-web-platform.test, DNS:xn--n8j6ds53lwwkrqhv28a.xn--n8j6ds53lwwkrqhv28a.web-platform.test, DNS:xn--n8j6ds53lwwkrqhv28a.xn--n8j6ds53lwwkrqhv28a.not-web-platform.test
    Signature Algorithm: sha256WithRSAEncryption
    Signature Value:
        a2:5f:a1:fa:c2:84:f4:ca:49:4e:a8:9e:d8:98:7d:6d:c1:5a:
        72:ab:90:d2:b9:81:b7:99:3e:3d:cb:db:37:17:9e:aa:b6:6c:
        68:e7:16:ef:53:65:02:8c:98:19:ce:7d:aa:7b:e7:b2:89:e8:
        8c:7b:35:01:3c:ab:d5:77:97:f6:e5:17:0b:7a:74:f9:6a:45:
        38:13:77:75:51:60:22:fc:a3:8b:b9:a2:a8:ee:37:50:a7:a7:
        96:bf:16:c7:00:f8:43:7c:bb:10:cd:04:0b:2e:5a:76:a5:c6:
        fa:39:2e:2e:cf:45:0e:4f:62:9b:9c:80:36:a9:41:4a:cd:cd:
        b3:f0:4e:8f:2e:96:79:fa:a2:90:32:cc:f7:40:9a:cc:a8:5d:
        0a:a8:b1:8c:06:9c:bc:78:a4:e4:07:79:95:57:47:b9:54:75:
        96:df:9d:13:39:56:ab:ee:97:51:86:c2:84:70:3c:e9:eb:79:
        86:67:3d:e3:2b:7a:43:48:eb:73:e7:4b:29:57:7c:92:ea:42:
        2e:68:34:14:11:54:65:0a:a2:82:d7:a8:82:17:05:aa:db:17:
        3c:36:30:40:6a:88:5b:dd:4c:62:ce:66:80:25:35:15:8f:8e:
        a6:29:d9:84:80:4f:2d:a0:a9:cc:e2:f1:fb:a3:c9:c2:9e:23:
        08:91:e3:76
-----BEGIN CERTIFICATE-----
MIIMsjCCC5qgAwIBAgIDCavUMA0GCSqGSIb3DQEBCwUAMB0xGzAZBgNVBAMMEndl
Yi1wbGF0Zm9ybS10ZXN0czAeFw0yNTA4MjkyMDMyMzBaFw0yNjA4MjkyMDMyMzBa
MBwxGjAYBgNVBAMMEXdlYi1wbGF0Zm9ybS50ZXN0MIIBIjANBgkqhkiG9w0BAQEF
AAOCAQ8AMIIBCgKCAQEAuX+CY5xq5ZbbaiYYYbLSjiI+QgpbQ24rU2cZq8i4QfNi
lfXLyrIV2EVTxCHezzKBRFx3EG9JPv5vinTbUWAeh2Ce9sCHMn2xiwbt8sbseZjo
0S4TDTgGPyFEX1hcxQOg4wm4nuJqP9PfSZJDk/yZhckWFo07pCDcODUPX14w5/js
mPYBANmd61Y+EamoICmVLziDRk5DIbx2/k4HMwsNK6X4y9a3ED73uof9lXz/lYYQ
ETnFZhDULWtQZyuddUV50wFco0ZaPFi/UDDsBPIpgdvPn1mvLFMoMBMFddtMq+Cr
avgC+m0gO1QgIn0+sDrMGmQZaN8pmXl9N5rzPu/87wIDAQABo4IJ+jCCCfYwCQYD
VR0TBAIwADAdBgNVHQ4EFgQUcZk9Y7pyYBKMW1U6kS77O2O4yh4wHwYDVR0jBBgw
FoAUWIGTzQQik+e8JfY8/ZhbcnSaycMwCwYDVR0PBAQDAgXgMBMGA1UdJQQMMAoG
CCsGAQUFBwMBMIIJhQYDVR0RBIIJfDCCCXiCEXdlYi1wbGF0Zm9ybS50ZXN0ghVu
b3Qtd2ViLXBsYXRmb3JtLnRlc3SCFXd3dy53ZWItcGxhdGZvcm0udGVzdIIWd3d3
MS53ZWItcGxhdGZvcm0udGVzdIIWd3d3Mi53ZWItcGxhdGZvcm0udGVzdIIZd3d3
Lm5vdC13ZWItcGxhdGZvcm0udGVzdIIZd3d3Lnd3dy53ZWItcGxhdGZvcm0udGVz
dIIad3d3Mi53d3cud2ViLXBsYXRmb3JtLnRlc3SCGnd3dzEud3d3LndlYi1wbGF0
Zm9ybS50ZXN0ghp3d3cyLm5vdC13ZWItcGxhdGZvcm0udGVzdIIad3d3Lnd3dzIu
d2ViLXBsYXRmb3JtLnRlc3SCGnd3dy53d3cxLndlYi1wbGF0Zm9ybS50ZXN0ghp3
d3cxLm5vdC13ZWItcGxhdGZvcm0udGVzdIIbd3d3Mi53d3cxLndlYi1wbGF0Zm9y
bS50ZXN0ght3d3cxLnd3dzEud2ViLXBsYXRmb3JtLnRlc3SCG3d3dzIud3d3Mi53
ZWItcGxhdGZvcm0udGVzdIIbd3d3MS53d3cyLndlYi1wbGF0Zm9ybS50ZXN0gh13
d3cud3d3Lm5vdC13ZWItcGxhdGZvcm0udGVzdIIed3d3Lnd3dzEubm90LXdlYi1w
bGF0Zm9ybS50ZXN0gh53d3cud3d3Mi5ub3Qtd2ViLXBsYXRmb3JtLnRlc3SCHnd3
dzEud3d3Lm5vdC13ZWItcGxhdGZvcm0udGVzdIIeeG4tLWx2ZS02bGFkLndlYi1w
bGF0Zm9ybS50ZXN0gh53d3cyLnd3dy5ub3Qtd2ViLXBsYXRmb3JtLnRlc3SCH3d3
dzIud3d3MS5ub3Qtd2ViLXBsYXRmb3JtLnRlc3SCH3d3dzEud3d3Mi5ub3Qtd2Vi
LXBsYXRmb3JtLnRlc3SCH3d3dzEud3d3MS5ub3Qtd2ViLXBsYXRmb3JtLnRlc3SC
H3d3dzIud3d3Mi5ub3Qtd2ViLXBsYXRmb3JtLnRlc3SCInhuLS1sdmUtNmxhZC5u
b3Qtd2ViLXBsYXRmb3JtLnRlc3SCInd3dy54bi0tbHZlLTZsYWQud2ViLXBsYXRm
b3JtLnRlc3SCInhuLS1sdmUtNmxhZC53d3cud2ViLXBsYXRmb3JtLnRlc3SCI3d3
dzEueG4tLWx2ZS02bGFkLndlYi1wbGF0Zm9ybS50ZXN0giN3d3cyLnhuLS1sdmUt
NmxhZC53ZWItcGxhdGZvcm0udGVzdIIjeG4tLWx2ZS02bGFkLnd3dzIud2ViLXBs
YXRmb3JtLnRlc3SCI3huLS1sdmUtNmxhZC53d3cxLndlYi1wbGF0Zm9ybS50ZXN0
giZ4bi0tbHZlLTZsYWQud3d3Lm5vdC13ZWItcGxhdGZvcm0udGVzdIImd3d3Lnhu
LS1sdmUtNmxhZC5ub3Qtd2ViLXBsYXRmb3JtLnRlc3SCJ3huLS1sdmUtNmxhZC53
d3cxLm5vdC13ZWItcGxhdGZvcm0udGVzdIInd3d3Mi54bi0tbHZlLTZsYWQubm90
LXdlYi1wbGF0Zm9ybS50ZXN0gid3d3cxLnhuLS1sdmUtNmxhZC5ub3Qtd2ViLXBs
YXRmb3JtLnRlc3SCJ3huLS1sdmUtNmxhZC53d3cyLm5vdC13ZWItcGxhdGZvcm0u
dGVzdIIpeG4tLW44ajZkczUzbHd3a3JxaHYyOGEud2ViLXBsYXRmb3JtLnRlc3SC
K3huLS1sdmUtNmxhZC54bi0tbHZlLTZsYWQud2ViLXBsYXRmb3JtLnRlc3SCLXhu
LS1uOGo2ZHM1M2x3d2tycWh2MjhhLnd3dy53ZWItcGxhdGZvcm0udGVzdIItd3d3
LnhuLS1uOGo2ZHM1M2x3d2tycWh2MjhhLndlYi1wbGF0Zm9ybS50ZXN0gi14bi0t
bjhqNmRzNTNsd3drcnFodjI4YS5ub3Qtd2ViLXBsYXRmb3JtLnRlc3SCLnhuLS1u
OGo2ZHM1M2x3d2tycWh2MjhhLnd3dzIud2ViLXBsYXRmb3JtLnRlc3SCLnd3dzIu
eG4tLW44ajZkczUzbHd3a3JxaHYyOGEud2ViLXBsYXRmb3JtLnRlc3SCLnd3dzEu
eG4tLW44ajZkczUzbHd3a3JxaHYyOGEud2ViLXBsYXRmb3JtLnRlc3SCLnhuLS1u
OGo2ZHM1M2x3d2tycWh2MjhhLnd3dzEud2ViLXBsYXRmb3JtLnRlc3SCL3huLS1s
dmUtNmxhZC54bi0tbHZlLTZsYWQubm90LXdlYi1wbGF0Zm9ybS50ZXN0gjF3d3cu
eG4tLW44ajZkczUzbHd3a3JxaHYyOGEubm90LXdlYi1wbGF0Zm9ybS50ZXN0gjF4
bi0tbjhqNmRzNTNsd3drcnFodjI4YS53d3cubm90LXdlYi1wbGF0Zm9ybS50ZXN0
gjJ4bi0tbjhqNmRzNTNsd3drcnFodjI4YS53d3cyLm5vdC13ZWItcGxhdGZvcm0u
dGVzdIIyeG4tLW44ajZkczUzbHd3a3JxaHYyOGEud3d3MS5ub3Qtd2ViLXBsYXRm
b3JtLnRlc3SCMnd3dzEueG4tLW44ajZkczUzbHd3a3JxaHYyOGEubm90LXdlYi1w
bGF0Zm9ybS50ZXN0gjJ3d3cyLnhuLS1uOGo2ZHM1M2x3d2tycWh2MjhhLm5vdC13
ZWItcGxhdGZvcm0udGVzdII2eG4tLW44ajZkczUzbHd3a3JxaHYyOGEueG4tLWx2
ZS02bGFkLndlYi1wbGF0Zm9ybS50ZXN0gjZ4bi0tbHZlLTZsYWQueG4tLW44ajZk
czUzbHd3a3JxaHYyOGEud2ViLXBsYXRmb3JtLnRlc3SCOnhuLS1sdmUtNmxhZC54
bi0tbjhqNmRzNTNsd3drcnFodjI4YS5ub3Qtd2ViLXBsYXRmb3JtLnRlc3SCOnhu
LS1uOGo2ZHM1M2x3d2tycWh2MjhhLnhuLS1sdmUtNmxhZC5ub3Qtd2ViLXBsYXRm
b3JtLnRlc3SCQXhuLS1uOGo2ZHM1M2x3d2tycWh2MjhhLnhuLS1uOGo2ZHM1M2x3
d2tycWh2MjhhLndlYi1wbGF0Zm9ybS50ZXN0gkV4bi0tbjhqNmRzNTNsd3drcnFo
djI4YS54bi0tbjhqNmRzNTNsd3drcnFodjI4YS5ub3Qtd2ViLXBsYXRmb3JtLnRl
c3QwDQYJKoZIhvcNAQELBQADggEBAKJfofrChPTKSU6ontiYfW3BWnKrkNK5gbeZ
Pj3L2zcXnqq2bGjnFu9TZQKMmBnOfap757KJ6Ix7NQE8q9V3l/blFwt6dPlqRTgT
d3VRYCL8o4u5oqjuN1Cnp5a/FscA+EN8uxDNBAsuWnalxvo5Li7PRQ5PYpucgDap
QUrNzbPwTo8ulnn6opAyzPdAmsyoXQqosYwGnLx4pOQHeZVXR7lUdZbfnRM5Vqvu
l1GGwoRwPOnreYZnPeMrekNI63PnSylXfJLqQi5oNBQRVGUKooLXqIIXBarbFzw2
MEBqiFvdTGLOZoAlNRWPjqYp2YSATy2gqczi8fujycKeIwiR43Y=
-----END CERTIFICATE-----
